target datalayout = "e-m:e-p270:32:32-p271:32:32-p272:64:64-i64:64-i128:128-f80:128-n8:16:32:64-S128"
target triple = "x86_64-unknown-linux-gnu"

%"class.std::error_code" = type { i32, ptr }
%"class.(anonymous namespace)::FDCloser" = type <{ ptr, i8, [7 x i8] }>
%struct.stat = type { i64, i64, i64, i32, i32, i32, i32, i64, i64, i64, i64, %struct.timespec, %struct.timespec, %struct.timespec, [3 x i64] }
%struct.timespec = type { i64, i64 }
%class.anon.12 = type { i8 }

@__const._ZN4llvh3sys7Process28FixupStandardFileDescriptorsEv.StandardFDs = private unnamed_addr constant [3 x i32] [i32 0, i32 1, i32 2], align 4
@.str.16 = private unnamed_addr constant [10 x i8] c"/dev/null\00", align 1

; Function Attrs: mustprogress nounwind uwtable
define internal noundef i32 @"_ZZN4llvh3sys7Process28FixupStandardFileDescriptorsEvENK3$_0clEv"(ptr noundef nonnull align 1 dereferenceable(1) %this) #0 align 2 {
entry:
  %this.addr = alloca ptr, align 8
  store ptr %this, ptr %this.addr, align 8
  %call = call i32 (ptr, i32, ...) @open(ptr noundef @.str.16, i32 noundef 2)
  ret i32 %call
}

; Function Attrs: mustprogress nounwind uwtable
define internal void @_ZN12_GLOBAL__N_18FDCloserD2Ev(ptr noundef nonnull align 8 dereferenceable(9) %this) unnamed_addr #0 align 2 {
entry:
  %this.addr = alloca ptr, align 8
  store ptr %this, ptr %this.addr, align 8
  %this1 = load ptr, ptr %this.addr, align 8
  %KeepOpen = getelementptr inbounds %"class.(anonymous namespace)::FDCloser", ptr %this1, i32 0, i32 1
  %0 = load i8, ptr %KeepOpen, align 8
  %tobool = trunc i8 %0 to i1
  br i1 %tobool, label %if.end, label %land.lhs.true

land.lhs.true:                                    ; preds = %entry
  %FD = getelementptr inbounds %"class.(anonymous namespace)::FDCloser", ptr %this1, i32 0, i32 0
  %1 = load ptr, ptr %FD, align 8
  %2 = load i32, ptr %1, align 4
  %cmp = icmp sge i32 %2, 0
  br i1 %cmp, label %if.then, label %if.end

if.then:                                          ; preds = %land.lhs.true
  %FD2 = getelementptr inbounds %"class.(anonymous namespace)::FDCloser", ptr %this1, i32 0, i32 0
  %3 = load ptr, ptr %FD2, align 8
  %4 = load i32, ptr %3, align 4
  %call = call i32 @close(i32 noundef %4)
  br label %if.end

if.end:                                           ; preds = %if.then, %land.lhs.true, %entry
  ret void
}

; Function Attrs: mustprogress nounwind uwtable
define linkonce_odr void @_ZNSt10error_codeC2Ev(ptr noundef nonnull align 8 dereferenceable(16) %this) unnamed_addr #0 comdat align 2 {
entry:
  %this.addr = alloca ptr, align 8
  store ptr %this, ptr %this.addr, align 8
  %this1 = load ptr, ptr %this.addr, align 8
  %_M_value = getelementptr inbounds %"class.std::error_code", ptr %this1, i32 0, i32 0
  store i32 0, ptr %_M_value, align 8
  %_M_cat = getelementptr inbounds %"class.std::error_code", ptr %this1, i32 0, i32 1
  %call = call noundef nonnull align 8 dereferenceable(8) ptr @_ZNSt3_V215system_categoryEv() #11
  store ptr %call, ptr %_M_cat, align 8
  ret void
}

; Function Attrs: mustprogress nounwind uwtable
define internal void @_ZN12_GLOBAL__N_18FDCloser8keepOpenEv(ptr noundef nonnull align 8 dereferenceable(9) %this) #0 align 2 {
entry:
  %this.addr = alloca ptr, align 8
  store ptr %this, ptr %this.addr, align 8
  %this1 = load ptr, ptr %this.addr, align 8
  %KeepOpen = getelementptr inbounds %"class.(anonymous namespace)::FDCloser", ptr %this1, i32 0, i32 1
  store i8 1, ptr %KeepOpen, align 8
  ret void
}

; Function Attrs: mustprogress nounwind uwtable
define internal noundef i32 @"_ZN4llvh3sys16RetryAfterSignalIiZNS0_7Process28FixupStandardFileDescriptorsEvE3$_0JEEEDTclfp0_spfp1_EERKT_RKT0_DpRKT1_"(ptr noundef nonnull align 4 dereferenceable(4) %Fail, ptr noundef nonnull align 1 dereferenceable(1) %F) #0 {
entry:
  %Fail.addr = alloca ptr, align 8
  %F.addr = alloca ptr, align 8
  %Res = alloca i32, align 4
  store ptr %Fail, ptr %Fail.addr, align 8
  store ptr %F, ptr %F.addr, align 8
  br label %do.body

do.body:                                          ; preds = %land.end, %entry
  %call = call ptr @__errno_location() #11
  store i32 0, ptr %call, align 4
  %0 = load ptr, ptr %F.addr, align 8
  %call1 = call noundef i32 @"_ZZN4llvh3sys7Process28FixupStandardFileDescriptorsEvENK3$_0clEv"(ptr noundef nonnull align 1 dereferenceable(1) %0)
  store i32 %call1, ptr %Res, align 4
  br label %do.cond

do.cond:                                          ; preds = %do.body
  %1 = load i32, ptr %Res, align 4
  %2 = load ptr, ptr %Fail.addr, align 8
  %3 = load i32, ptr %2, align 4
  %cmp = icmp eq i32 %1, %3
  br i1 %cmp, label %land.rhs, label %land.end

land.rhs:                                         ; preds = %do.cond
  %call2 = call ptr @__errno_location() #11
  %4 = load i32, ptr %call2, align 4
  %cmp3 = icmp eq i32 %4, 4
  br label %land.end

land.end:                                         ; preds = %land.rhs, %do.cond
  %5 = phi i1 [ false, %do.cond ], [ %cmp3, %land.rhs ]
  br i1 %5, label %do.body, label %do.end, !llvm.loop !7

do.end:                                           ; preds = %land.end
  %6 = load i32, ptr %Res, align 4
  ret i32 %6
}

; Function Attrs: mustprogress nounwind uwtable
define linkonce_odr void @_ZNSt10error_codeC2EiRKNSt3_V214error_categoryE(ptr noundef nonnull align 8 dereferenceable(16) %this, i32 noundef %__v, ptr noundef nonnull align 8 dereferenceable(8) %__cat) unnamed_addr #0 comdat align 2 {
entry:
  %this.addr = alloca ptr, align 8
  %__v.addr = alloca i32, align 4
  %__cat.addr = alloca ptr, align 8
  store ptr %this, ptr %this.addr, align 8
  store i32 %__v, ptr %__v.addr, align 4
  store ptr %__cat, ptr %__cat.addr, align 8
  %this1 = load ptr, ptr %this.addr, align 8
  %_M_value = getelementptr inbounds %"class.std::error_code", ptr %this1, i32 0, i32 0
  %0 = load i32, ptr %__v.addr, align 4
  store i32 %0, ptr %_M_value, align 8
  %_M_cat = getelementptr inbounds %"class.std::error_code", ptr %this1, i32 0, i32 1
  %1 = load ptr, ptr %__cat.addr, align 8
  store ptr %1, ptr %_M_cat, align 8
  ret void
}

; Function Attrs: mustprogress nounwind uwtable
define linkonce_odr hidden noundef i32 @_ZN4llvh3sys16RetryAfterSignalIiDoFiiP4statEJiS3_EEEDTclfp0_spfp1_EERKT_RKT0_DpRKT1_(ptr noundef nonnull align 4 dereferenceable(4) %Fail, ptr noundef nonnull %F, ptr noundef nonnull align 4 dereferenceable(4) %As, ptr noundef nonnull align 8 dereferenceable(8) %As1) #0 comdat {
entry:
  %Fail.addr = alloca ptr, align 8
  %F.addr = alloca ptr, align 8
  %As.addr = alloca ptr, align 8
  %As.addr2 = alloca ptr, align 8
  %Res = alloca i32, align 4
  store ptr %Fail, ptr %Fail.addr, align 8
  store ptr %F, ptr %F.addr, align 8
  store ptr %As, ptr %As.addr, align 8
  store ptr %As1, ptr %As.addr2, align 8
  br label %do.body

do.body:                                          ; preds = %land.end, %entry
  %call = call ptr @__errno_location() #11
  store i32 0, ptr %call, align 4
  %0 = load ptr, ptr %F.addr, align 8
  %1 = load ptr, ptr %As.addr, align 8
  %2 = load i32, ptr %1, align 4
  %3 = load ptr, ptr %As.addr2, align 8
  %4 = load ptr, ptr %3, align 8
  %call3 = call noundef i32 %0(i32 noundef %2, ptr noundef %4) #5
  store i32 %call3, ptr %Res, align 4
  br label %do.cond

do.cond:                                          ; preds = %do.body
  %5 = load i32, ptr %Res, align 4
  %6 = load ptr, ptr %Fail.addr, align 8
  %7 = load i32, ptr %6, align 4
  %cmp = icmp eq i32 %5, %7
  br i1 %cmp, label %land.rhs, label %land.end

land.rhs:                                         ; preds = %do.cond
  %call4 = call ptr @__errno_location() #11
  %8 = load i32, ptr %call4, align 4
  %cmp5 = icmp eq i32 %8, 4
  br label %land.end

land.end:                                         ; preds = %land.rhs, %do.cond
  %9 = phi i1 [ false, %do.cond ], [ %cmp5, %land.rhs ]
  br i1 %9, label %do.body, label %do.end, !llvm.loop !5

do.end:                                           ; preds = %land.end
  %10 = load i32, ptr %Res, align 4
  ret i32 %10
}

; Function Attrs: mustprogress nounwind uwtable
define internal void @_ZN12_GLOBAL__N_18FDCloserC2ERi(ptr noundef nonnull align 8 dereferenceable(9) %this, ptr noundef nonnull align 4 dereferenceable(4) %FD) unnamed_addr #0 align 2 {
entry:
  %this.addr = alloca ptr, align 8
  %FD.addr = alloca ptr, align 8
  store ptr %this, ptr %this.addr, align 8
  store ptr %FD, ptr %FD.addr, align 8
  %this1 = load ptr, ptr %this.addr, align 8
  %FD2 = getelementptr inbounds %"class.(anonymous namespace)::FDCloser", ptr %this1, i32 0, i32 0
  %0 = load ptr, ptr %FD.addr, align 8
  store ptr %0, ptr %FD2, align 8
  %KeepOpen = getelementptr inbounds %"class.(anonymous namespace)::FDCloser", ptr %this1, i32 0, i32 1
  store i8 0, ptr %KeepOpen, align 8
  ret void
}

; Function Attrs: mustprogress nounwind uwtable
define hidden { i32, ptr } @_ZN4llvh3sys7Process28FixupStandardFileDescriptorsEv() #0 align 2 {
entry:
  %retval = alloca %"class.std::error_code", align 8
  %NullFD = alloca i32, align 4
  %FDC = alloca %"class.(anonymous namespace)::FDCloser", align 8
  %StandardFDs = alloca [3 x i32], align 4
  %__range1 = alloca ptr, align 8
  %__begin1 = alloca ptr, align 8
  %__end1 = alloca ptr, align 8
  %StandardFD = alloca i32, align 4
  %st = alloca %struct.stat, align 8
  %ref.tmp = alloca i32, align 4
  %ref.tmp2 = alloca ptr, align 8
  %cleanup.dest.slot = alloca i32, align 4
  %Open = alloca %class.anon.12, align 1
  %ref.tmp16 = alloca i32, align 4
  store i32 -1, ptr %NullFD, align 4
  call void @_ZN12_GLOBAL__N_18FDCloserC2ERi(ptr noundef nonnull align 8 dereferenceable(9) %FDC, ptr noundef nonnull align 4 dereferenceable(4) %NullFD)
  call void @llvm.memcpy.p0.p0.i64(ptr align 4 %StandardFDs, ptr align 4 @__const._ZN4llvh3sys7Process28FixupStandardFileDescriptorsEv.StandardFDs, i64 12, i1 false)
  store ptr %StandardFDs, ptr %__range1, align 8
  %0 = load ptr, ptr %__range1, align 8
  %arraydecay = getelementptr inbounds [3 x i32], ptr %0, i64 0, i64 0
  store ptr %arraydecay, ptr %__begin1, align 8
  %1 = load ptr, ptr %__range1, align 8
  %arraydecay1 = getelementptr inbounds [3 x i32], ptr %1, i64 0, i64 0
  %add.ptr = getelementptr inbounds i32, ptr %arraydecay1, i64 3
  store ptr %add.ptr, ptr %__end1, align 8
  br label %for.cond

for.cond:                                         ; preds = %for.inc, %entry
  %2 = load ptr, ptr %__begin1, align 8
  %3 = load ptr, ptr %__end1, align 8
  %cmp = icmp ne ptr %2, %3
  br i1 %cmp, label %for.body, label %for.end

for.body:                                         ; preds = %for.cond
  %4 = load ptr, ptr %__begin1, align 8
  %5 = load i32, ptr %4, align 4
  store i32 %5, ptr %StandardFD, align 4
  %call = call ptr @__errno_location() #11
  store i32 0, ptr %call, align 4
  store i32 -1, ptr %ref.tmp, align 4
  store ptr %st, ptr %ref.tmp2, align 8
  %call3 = call noundef i32 @_ZN4llvh3sys16RetryAfterSignalIiDoFiiP4statEJiS3_EEEDTclfp0_spfp1_EERKT_RKT0_DpRKT1_(ptr noundef nonnull align 4 dereferenceable(4) %ref.tmp, ptr noundef nonnull @fstat, ptr noundef nonnull align 4 dereferenceable(4) %StandardFD, ptr noundef nonnull align 8 dereferenceable(8) %ref.tmp2)
  %cmp4 = icmp slt i32 %call3, 0
  br i1 %cmp4, label %if.then, label %if.end10

if.then:                                          ; preds = %for.body
  %call5 = call ptr @__errno_location() #11
  %6 = load i32, ptr %call5, align 4
  %cmp6 = icmp ne i32 %6, 9
  br i1 %cmp6, label %if.then7, label %if.end

if.then7:                                         ; preds = %if.then
  %call8 = call ptr @__errno_location() #11
  %7 = load i32, ptr %call8, align 4
  %call9 = call noundef nonnull align 8 dereferenceable(8) ptr @_ZNSt3_V216generic_categoryEv() #11
  call void @_ZNSt10error_codeC2EiRKNSt3_V214error_categoryE(ptr noundef nonnull align 8 dereferenceable(16) %retval, i32 noundef %7, ptr noundef nonnull align 8 dereferenceable(8) %call9) #5
  store i32 1, ptr %cleanup.dest.slot, align 4
  br label %cleanup

if.end:                                           ; preds = %if.then
  br label %if.end10

if.end10:                                         ; preds = %if.end, %for.body
  %call11 = call ptr @__errno_location() #11
  %8 = load i32, ptr %call11, align 4
  %tobool = icmp ne i32 %8, 0
  br i1 %tobool, label %if.end13, label %if.then12

if.then12:                                        ; preds = %if.end10
  br label %for.inc

if.end13:                                         ; preds = %if.end10
  %9 = load i32, ptr %NullFD, align 4
  %cmp14 = icmp slt i32 %9, 0
  br i1 %cmp14, label %if.then15, label %if.end23

if.then15:                                        ; preds = %if.end13
  store i32 -1, ptr %ref.tmp16, align 4
  %call17 = call noundef i32 @"_ZN4llvh3sys16RetryAfterSignalIiZNS0_7Process28FixupStandardFileDescriptorsEvE3$_0JEEEDTclfp0_spfp1_EERKT_RKT0_DpRKT1_"(ptr noundef nonnull align 4 dereferenceable(4) %ref.tmp16, ptr noundef nonnull align 1 dereferenceable(1) %Open)
  store i32 %call17, ptr %NullFD, align 4
  %cmp18 = icmp slt i32 %call17, 0
  br i1 %cmp18, label %if.then19, label %if.end22

if.then19:                                        ; preds = %if.then15
  %call20 = call ptr @__errno_location() #11
  %10 = load i32, ptr %call20, align 4
  %call21 = call noundef nonnull align 8 dereferenceable(8) ptr @_ZNSt3_V216generic_categoryEv() #11
  call void @_ZNSt10error_codeC2EiRKNSt3_V214error_categoryE(ptr noundef nonnull align 8 dereferenceable(16) %retval, i32 noundef %10, ptr noundef nonnull align 8 dereferenceable(8) %call21) #5
  store i32 1, ptr %cleanup.dest.slot, align 4
  br label %cleanup

if.end22:                                         ; preds = %if.then15
  br label %if.end23

if.end23:                                         ; preds = %if.end22, %if.end13
  %11 = load i32, ptr %NullFD, align 4
  %12 = load i32, ptr %StandardFD, align 4
  %cmp24 = icmp eq i32 %11, %12
  br i1 %cmp24, label %if.then25, label %if.else

if.then25:                                        ; preds = %if.end23
  call void @_ZN12_GLOBAL__N_18FDCloser8keepOpenEv(ptr noundef nonnull align 8 dereferenceable(9) %FDC)
  br label %if.end32

if.else:                                          ; preds = %if.end23
  %13 = load i32, ptr %NullFD, align 4
  %14 = load i32, ptr %StandardFD, align 4
  %call26 = call i32 @dup2(i32 noundef %13, i32 noundef %14) #5
  %cmp27 = icmp slt i32 %call26, 0
  br i1 %cmp27, label %if.then28, label %if.end31

if.then28:                                        ; preds = %if.else
  %call29 = call ptr @__errno_location() #11
  %15 = load i32, ptr %call29, align 4
  %call30 = call noundef nonnull align 8 dereferenceable(8) ptr @_ZNSt3_V216generic_categoryEv() #11
  call void @_ZNSt10error_codeC2EiRKNSt3_V214error_categoryE(ptr noundef nonnull align 8 dereferenceable(16) %retval, i32 noundef %15, ptr noundef nonnull align 8 dereferenceable(8) %call30) #5
  store i32 1, ptr %cleanup.dest.slot, align 4
  br label %cleanup

if.end31:                                         ; preds = %if.else
  br label %if.end32

if.end32:                                         ; preds = %if.end31, %if.then25
  br label %for.inc

for.inc:                                          ; preds = %if.end32, %if.then12
  %16 = load ptr, ptr %__begin1, align 8
  %incdec.ptr = getelementptr inbounds i32, ptr %16, i32 1
  store ptr %incdec.ptr, ptr %__begin1, align 8
  br label %for.cond

for.end:                                          ; preds = %for.cond
  call void @_ZNSt10error_codeC2Ev(ptr noundef nonnull align 8 dereferenceable(16) %retval) #5
  store i32 1, ptr %cleanup.dest.slot, align 4
  br label %cleanup

cleanup:                                          ; preds = %for.end, %if.then28, %if.then19, %if.then7
  call void @_ZN12_GLOBAL__N_18FDCloserD2Ev(ptr noundef nonnull align 8 dereferenceable(9) %FDC) #5
  %17 = load { i32, ptr }, ptr %retval, align 8
  ret { i32, ptr } %17
}