; Function Attrs: mustprogress nounwind uwtable
define hidden { i32, ptr } @_ZN4llvh3sys7Process28FixupStandardFileDescriptorsEv() local_unnamed_addr #0 align 2 {
entry:
  %st = alloca %struct.stat, align 8
  %call = tail call ptr @__errno_location() #20
  br label %for.body

for.body:                                         ; preds = %entry, %for.inc
  %__begin1.0.idx45 = phi i64 [ 0, %entry ], [ %__begin1.0.add, %for.inc ]
  %FDC.sroa.2.044 = phi i1 [ false, %entry ], [ %FDC.sroa.2.1, %for.inc ]
  %NullFD.043 = phi i32 [ -1, %entry ], [ %NullFD.2, %for.inc ]
  %__begin1.0.ptr = getelementptr inbounds nuw i8, ptr @__const._ZN4llvh3sys7Process28FixupStandardFileDescriptorsEv.StandardFDs, i64 %__begin1.0.idx45
  %0 = load i32, ptr %__begin1.0.ptr, align 4
  br label %do.body.i

do.body.i:                                        ; preds = %land.rhs.i, %for.body
  store i32 0, ptr %call, align 4
  %call3.i = call noundef i32 @fstat(i32 noundef %0, ptr noundef nonnull %st) #18
  %cmp.i = icmp eq i32 %call3.i, -1
  br i1 %cmp.i, label %land.rhs.i, label %_ZN4llvh3sys16RetryAfterSignalIiDoFiiP4statEJiS3_EEEDTclfp0_spfp1_EERKT_RKT0_DpRKT1_.exit

land.rhs.i:                                       ; preds = %do.body.i
  %1 = load i32, ptr %call, align 4
  %cmp5.i = icmp eq i32 %1, 4
  br i1 %cmp5.i, label %do.body.i, label %if.then, !llvm.loop !16

_ZN4llvh3sys16RetryAfterSignalIiDoFiiP4statEJiS3_EEEDTclfp0_spfp1_EERKT_RKT0_DpRKT1_.exit: ; preds = %do.body.i
  %cmp4 = icmp slt i32 %call3.i, 0
  %.pre = load i32, ptr %call, align 4
  br i1 %cmp4, label %if.then, label %if.end10

if.then:                                          ; preds = %land.rhs.i, %_ZN4llvh3sys16RetryAfterSignalIiDoFiiP4statEJiS3_EEEDTclfp0_spfp1_EERKT_RKT0_DpRKT1_.exit
  %2 = phi i32 [ %.pre, %_ZN4llvh3sys16RetryAfterSignalIiDoFiiP4statEJiS3_EEEDTclfp0_spfp1_EERKT_RKT0_DpRKT1_.exit ], [ %1, %land.rhs.i ]
  %cmp6.not = icmp eq i32 %2, 9
  br i1 %cmp6.not, label %if.end13, label %if.then7

if.then7:                                         ; preds = %if.then
  %call9 = tail call noundef nonnull align 8 dereferenceable(8) ptr @_ZNSt3_V216generic_categoryEv() #20
  br label %cleanup

if.end10:                                         ; preds = %_ZN4llvh3sys16RetryAfterSignalIiDoFiiP4statEJiS3_EEEDTclfp0_spfp1_EERKT_RKT0_DpRKT1_.exit
  %tobool.not = icmp eq i32 %.pre, 0
  br i1 %tobool.not, label %for.inc, label %if.end13

if.end13:                                         ; preds = %if.then, %if.end10
  %cmp14 = icmp slt i32 %NullFD.043, 0
  br i1 %cmp14, label %do.body.i8, label %if.end23

do.body.i8:                                       ; preds = %if.end13, %land.rhs.i10
  store i32 0, ptr %call, align 4
  %call.i.i = tail call noundef i32 (ptr, i32, ...) @open(ptr noundef nonnull @.str.16, i32 noundef 2) #18
  %cmp.i9 = icmp eq i32 %call.i.i, -1
  br i1 %cmp.i9, label %land.rhs.i10, label %"_ZN4llvh3sys16RetryAfterSignalIiZNS0_7Process28FixupStandardFileDescriptorsEvE3$_0JEEEDTclfp0_spfp1_EERKT_RKT0_DpRKT1_.exit"

land.rhs.i10:                                     ; preds = %do.body.i8
  %3 = load i32, ptr %call, align 4
  %cmp3.i = icmp eq i32 %3, 4
  br i1 %cmp3.i, label %do.body.i8, label %cleanup.thread, !llvm.loop !17

"_ZN4llvh3sys16RetryAfterSignalIiZNS0_7Process28FixupStandardFileDescriptorsEvE3$_0JEEEDTclfp0_spfp1_EERKT_RKT0_DpRKT1_.exit": ; preds = %do.body.i8
  %cmp18 = icmp slt i32 %call.i.i, 0
  br i1 %cmp18, label %if.then19.loopexit46, label %if.end23

if.then19.loopexit46:                             ; preds = %"_ZN4llvh3sys16RetryAfterSignalIiZNS0_7Process28FixupStandardFileDescriptorsEvE3$_0JEEEDTclfp0_spfp1_EERKT_RKT0_DpRKT1_.exit"
  %.pre59 = load i32, ptr %call, align 4
  br label %cleanup.thread

cleanup.thread:                                   ; preds = %land.rhs.i10, %if.then19.loopexit46
  %4 = phi i32 [ %.pre59, %if.then19.loopexit46 ], [ %3, %land.rhs.i10 ]
  %call21 = tail call noundef nonnull align 8 dereferenceable(8) ptr @_ZNSt3_V216generic_categoryEv() #20
  br label %_ZN12_GLOBAL__N_18FDCloserD2Ev.exit

if.end23:                                         ; preds = %"_ZN4llvh3sys16RetryAfterSignalIiZNS0_7Process28FixupStandardFileDescriptorsEvE3$_0JEEEDTclfp0_spfp1_EERKT_RKT0_DpRKT1_.exit", %if.end13
  %NullFD.3 = phi i32 [ %call.i.i, %"_ZN4llvh3sys16RetryAfterSignalIiZNS0_7Process28FixupStandardFileDescriptorsEvE3$_0JEEEDTclfp0_spfp1_EERKT_RKT0_DpRKT1_.exit" ], [ %NullFD.043, %if.end13 ]
  %cmp24 = icmp eq i32 %NullFD.3, %0
  br i1 %cmp24, label %for.inc, label %if.else

if.else:                                          ; preds = %if.end23
  %call26 = tail call i32 @dup2(i32 noundef %NullFD.3, i32 noundef %0) #18
  %cmp27 = icmp slt i32 %call26, 0
  br i1 %cmp27, label %if.then28, label %for.inc

if.then28:                                        ; preds = %if.else
  %5 = load i32, ptr %call, align 4
  %call30 = tail call noundef nonnull align 8 dereferenceable(8) ptr @_ZNSt3_V216generic_categoryEv() #20
  br label %cleanup

for.inc:                                          ; preds = %if.end23, %if.else, %if.end10
  %NullFD.2 = phi i32 [ %NullFD.043, %if.end10 ], [ %NullFD.3, %if.else ], [ %0, %if.end23 ]
  %FDC.sroa.2.1 = phi i1 [ %FDC.sroa.2.044, %if.end10 ], [ %FDC.sroa.2.044, %if.else ], [ true, %if.end23 ]
  %__begin1.0.add = add nuw nsw i64 %__begin1.0.idx45, 4
  %cmp.not = icmp eq i64 %__begin1.0.add, 12
  br i1 %cmp.not, label %for.end, label %for.body

for.end:                                          ; preds = %for.inc
  %call.i15 = tail call noundef nonnull align 8 dereferenceable(8) ptr @_ZNSt3_V215system_categoryEv() #20
  br label %cleanup

cleanup:                                          ; preds = %for.end, %if.then28, %if.then7
  %FDC.sroa.2.033 = phi i1 [ %FDC.sroa.2.1, %for.end ], [ %FDC.sroa.2.044, %if.then28 ], [ %FDC.sroa.2.044, %if.then7 ]
  %NullFD.1 = phi i32 [ %NullFD.2, %for.end ], [ %NullFD.3, %if.then28 ], [ %NullFD.043, %if.then7 ]
  %retval.sroa.0.0 = phi i32 [ 0, %for.end ], [ %5, %if.then28 ], [ %2, %if.then7 ]
  %retval.sroa.5.0 = phi ptr [ %call.i15, %for.end ], [ %call30, %if.then28 ], [ %call9, %if.then7 ]
  %cmp.i16 = icmp slt i32 %NullFD.1, 0
  %or.cond.not = select i1 %FDC.sroa.2.033, i1 true, i1 %cmp.i16
  br i1 %or.cond.not, label %_ZN12_GLOBAL__N_18FDCloserD2Ev.exit, label %if.then.i

if.then.i:                                        ; preds = %cleanup
  %call.i17 = tail call i32 @close(i32 noundef %NullFD.1) #18
  br label %_ZN12_GLOBAL__N_18FDCloserD2Ev.exit

_ZN12_GLOBAL__N_18FDCloserD2Ev.exit:              ; preds = %cleanup.thread, %cleanup, %if.then.i
  %retval.sroa.5.068 = phi ptr [ %call21, %cleanup.thread ], [ %retval.sroa.5.0, %cleanup ], [ %retval.sroa.5.0, %if.then.i ]
  %retval.sroa.0.067 = phi i32 [ %4, %cleanup.thread ], [ %retval.sroa.0.0, %cleanup ], [ %retval.sroa.0.0, %if.then.i ]
  %.fca.0.insert = insertvalue { i32, ptr } poison, i32 %retval.sroa.0.067, 0
  %.fca.1.insert = insertvalue { i32, ptr } %.fca.0.insert, ptr %retval.sroa.5.068, 1
  ret { i32, ptr } %.fca.1.insert
}